target datalayout = "e-m:e-p270:32:32-p271:32:32-p272:64:64-i64:64-i128:128-f80:128-n8:16:32:64-S128"
target triple = "x86_64-pc-linux-gnu"

@_ZL12granule_size = internal global i64 0, align 8
@.str.110 = private unnamed_addr constant [9 x i8] c"0x%016lx\00", align 1
@.str.155 = private unnamed_addr constant [2 x i8] c"|\00", align 1
@.str.210 = private unnamed_addr constant [13 x i8] c"(+0x%08x): |\00", align 1

; Function Attrs: mustprogress nounwind uwtable
define linkonce_odr hidden noundef i64 @_Z3p2iPVKv(ptr noundef %0) #1 comdat {
  %2 = alloca ptr, align 8
  store ptr %0, ptr %2, align 8
  %3 = load ptr, ptr %2, align 8
  %4 = ptrtoint ptr %3 to i64
  ret i64 %4
}

; Function Attrs: mustprogress nounwind uwtable
define hidden void @_ZN13CodeHeapState16print_line_delimEP12outputStreamS1_Pcjj(ptr noundef %0, ptr noundef %1, ptr noundef %2, i32 noundef %3, i32 noundef %4) #1 align 2 {
  %6 = alloca ptr, align 8
  %7 = alloca ptr, align 8
  %8 = alloca ptr, align 8
  %9 = alloca i32, align 4
  %10 = alloca i32, align 4
  store ptr %0, ptr %6, align 8
  store ptr %1, ptr %7, align 8
  store ptr %2, ptr %8, align 8
  store i32 %3, ptr %9, align 4
  store i32 %4, ptr %10, align 4
  %11 = load i32, ptr %9, align 4
  %12 = load i32, ptr %10, align 4
  %13 = urem i32 %11, %12
  %14 = icmp eq i32 %13, 0
  br i1 %14, label %15, label %38

15:                                               ; preds = %5
  %16 = load i32, ptr %9, align 4
  %17 = icmp ugt i32 %16, 0
  br i1 %17, label %18, label %20

18:                                               ; preds = %15
  %19 = load ptr, ptr %7, align 8
  call void (ptr, ptr, ...) @_ZN12outputStream5printEPKcz(ptr noundef nonnull align 8 dereferenceable(56) %19, ptr noundef @.str.155)
  br label %20

20:                                               ; preds = %18, %15
  %21 = load ptr, ptr %7, align 8
  call void @_ZN12outputStream2crEv(ptr noundef nonnull align 8 dereferenceable(56) %21)
  %22 = load ptr, ptr %7, align 8
  %23 = load ptr, ptr %8, align 8
  %24 = load i32, ptr %9, align 4
  %25 = zext i32 %24 to i64
  %26 = load i64, ptr @_ZL12granule_size, align 8
  %27 = mul i64 %25, %26
  %28 = getelementptr inbounds i8, ptr %23, i64 %27
  %29 = call noundef i64 @_Z3p2iPVKv(ptr noundef %28)
  call void (ptr, ptr, ...) @_ZN12outputStream5printEPKcz(ptr noundef nonnull align 8 dereferenceable(56) %22, ptr noundef @.str.110, i64 noundef %29)
  %30 = load ptr, ptr %7, align 8
  %31 = call noundef i32 @_ZN12outputStream7fill_toEi(ptr noundef nonnull align 8 dereferenceable(56) %30, i32 noundef 19)
  %32 = load ptr, ptr %7, align 8
  %33 = load i32, ptr %9, align 4
  %34 = zext i32 %33 to i64
  %35 = load i64, ptr @_ZL12granule_size, align 8
  %36 = mul i64 %34, %35
  %37 = trunc i64 %36 to i32
  call void (ptr, ptr, ...) @_ZN12outputStream5printEPKcz(ptr noundef nonnull align 8 dereferenceable(56) %32, ptr noundef @.str.210, i32 noundef %37)
  br label %38

38:                                               ; preds = %20, %5
  ret void
}