; Function Attrs: mustprogress nounwind uwtable
define hidden void @_ZN13CodeHeapState16print_line_delimEP12outputStreamS1_Pcjj(ptr nocapture noundef readnone %0, ptr noundef %1, ptr noundef %2, i32 noundef %3, i32 noundef %4) local_unnamed_addr #1 align 2 {
  %6 = urem i32 %3, %4
  %7 = icmp eq i32 %6, 0
  br i1 %7, label %8, label %20

8:                                                ; preds = %5
  %.not = icmp eq i32 %3, 0
  br i1 %.not, label %10, label %9

9:                                                ; preds = %8
  tail call void (ptr, ptr, ...) @_ZN12outputStream5printEPKcz(ptr noundef nonnull align 8 dereferenceable(56) %1, ptr noundef nonnull @.str.155) #12
  br label %10

10:                                               ; preds = %9, %8
  tail call void @_ZN12outputStream2crEv(ptr noundef nonnull align 8 dereferenceable(56) %1) #12
  %11 = zext i32 %3 to i64
  %12 = load i64, ptr @_ZL12granule_size, align 8
  %13 = mul i64 %12, %11
  %14 = getelementptr inbounds i8, ptr %2, i64 %13
  %15 = ptrtoint ptr %14 to i64
  tail call void (ptr, ptr, ...) @_ZN12outputStream5printEPKcz(ptr noundef nonnull align 8 dereferenceable(56) %1, ptr noundef nonnull @.str.110, i64 noundef %15) #12
  %16 = tail call noundef i32 @_ZN12outputStream7fill_toEi(ptr noundef nonnull align 8 dereferenceable(56) %1, i32 noundef 19) #12
  %17 = load i64, ptr @_ZL12granule_size, align 8
  %18 = trunc i64 %17 to i32
  %19 = mul i32 %18, %3
  tail call void (ptr, ptr, ...) @_ZN12outputStream5printEPKcz(ptr noundef nonnull align 8 dereferenceable(56) %1, ptr noundef nonnull @.str.210, i32 noundef %19) #12
  br label %20

20:                                               ; preds = %10, %5
  ret void
}